; Function Attrs: nounwind uwtable
define void @Abs_ManSupport2_rec(ptr noundef readonly captures(none) %0, ptr noundef %1, ptr noundef captures(none) %2) local_unnamed_addr #2 {
  %4 = getelementptr inbounds nuw i8, ptr %0, i64 616
  %5 = getelementptr i8, ptr %0, i64 32
  %6 = getelementptr inbounds nuw i8, ptr %0, i64 176
  %7 = load ptr, ptr %4, align 8, !tbaa !61
  %.val.i31 = load ptr, ptr %5, align 8, !tbaa !3
  %8 = ptrtoint ptr %1 to i64
  %9 = ptrtoint ptr %.val.i31 to i64
  %10 = sub i64 %8, %9
  %11 = sdiv exact i64 %10, 12
  %sext.i32 = shl i64 %11, 32
  %12 = ashr exact i64 %sext.i32, 30
  %13 = getelementptr inbounds i8, ptr %7, i64 %12
  %14 = load i32, ptr %13, align 4, !tbaa !30
  %15 = load i32, ptr %6, align 8, !tbaa !60
  %.not33 = icmp eq i32 %14, %15
  br i1 %.not33, label %.loopexit, label %.lr.ph

.lr.ph:                                           ; preds = %3
  %16 = getelementptr i8, ptr %0, i64 16
  %17 = getelementptr i8, ptr %0, i64 64
  %18 = getelementptr i8, ptr %0, i64 144
  store i32 %15, ptr %13, align 4, !tbaa !30
  %19 = load i64, ptr %1, align 4
  %20 = and i64 %19, 4611686018427387904
  %.not1838 = icmp eq i64 %20, 0
  br i1 %.not1838, label %.lr.ph40, label %Gia_ObjIsRo.exit.thread._crit_edge

21:                                               ; preds = %tailrecurse
  store i32 %84, ptr %82, align 4, !tbaa !30
  %22 = load i64, ptr %75, align 4
  %23 = and i64 %22, 4611686018427387904
  %.not18 = icmp eq i64 %23, 0
  br i1 %.not18, label %.lr.ph40, label %Gia_ObjIsRo.exit.thread._crit_edge

.lr.ph40:                                         ; preds = %.lr.ph, %21
  %24 = phi i64 [ %22, %21 ], [ %19, %.lr.ph ]
  %.tr283439 = phi ptr [ %75, %21 ], [ %1, %.lr.ph ]
  %25 = phi i64 [ %80, %21 ], [ %11, %.lr.ph ]
  %26 = phi i64 [ %81, %21 ], [ %12, %.lr.ph ]
  %27 = and i64 %24, 2684354559
  %narrow.i.not.i = icmp eq i64 %27, 2684354559
  br i1 %narrow.i.not.i, label %Gia_ObjIsRo.exit, label %Gia_ObjIsRo.exit.thread

Gia_ObjIsRo.exit:                                 ; preds = %.lr.ph40
  %28 = lshr i64 %24, 32
  %29 = trunc nuw i64 %28 to i32
  %30 = and i32 %29, 536870911
  %.val3.i = load i32, ptr %16, align 8, !tbaa !58
  %.val4.i = load ptr, ptr %17, align 8, !tbaa !44
  %31 = getelementptr i8, ptr %.val4.i, i64 4
  %.val4.val.i = load i32, ptr %31, align 4, !tbaa !33
  %32 = sub nsw i32 %.val4.val.i, %.val3.i
  %.not27 = icmp slt i32 %30, %32
  br i1 %.not27, label %Gia_ObjIsRo.exit.thread, label %Gia_ObjIsRo.exit.thread._crit_edge

Gia_ObjIsRo.exit.thread:                          ; preds = %.lr.ph40, %Gia_ObjIsRo.exit
  %.val21 = load ptr, ptr %18, align 8, !tbaa !34
  %33 = getelementptr inbounds i8, ptr %.val21, i64 %26
  %34 = load i32, ptr %33, align 4, !tbaa !30
  %35 = icmp sgt i32 %34, 0
  br i1 %35, label %Gia_ObjIsRo.exit.thread._crit_edge, label %tailrecurse

Gia_ObjIsRo.exit.thread._crit_edge:               ; preds = %21, %Gia_ObjIsRo.exit, %Gia_ObjIsRo.exit.thread, %.lr.ph
  %.lcssa = phi i64 [ %11, %.lr.ph ], [ %80, %21 ], [ %25, %Gia_ObjIsRo.exit ], [ %25, %Gia_ObjIsRo.exit.thread ]
  %36 = trunc i64 %.lcssa to i32
  %37 = getelementptr inbounds nuw i8, ptr %2, i64 4
  %38 = load i32, ptr %37, align 4, !tbaa !33
  %39 = load i32, ptr %2, align 8, !tbaa !31
  %40 = icmp eq i32 %38, %39
  br i1 %40, label %41, label %.Vec_IntGrow.exit10_crit_edge.i

.Vec_IntGrow.exit10_crit_edge.i:                  ; preds = %Gia_ObjIsRo.exit.thread._crit_edge
  %.phi.trans.insert.i = getelementptr inbounds nuw i8, ptr %2, i64 8
  %.pre.i = load ptr, ptr %.phi.trans.insert.i, align 8, !tbaa !29
  br label %Vec_IntPush.exit

41:                                               ; preds = %Gia_ObjIsRo.exit.thread._crit_edge
  %42 = icmp slt i32 %38, 16
  br i1 %42, label %43, label %51

43:                                               ; preds = %41
  %44 = getelementptr inbounds nuw i8, ptr %2, i64 8
  %45 = load ptr, ptr %44, align 8, !tbaa !29
  %.not9.i.i = icmp eq ptr %45, null
  br i1 %.not9.i.i, label %48, label %46

46:                                               ; preds = %43
  %47 = tail call dereferenceable_or_null(64) ptr @realloc(ptr noundef nonnull %45, i64 noundef 64) #24
  br label %Vec_IntGrow.exit.i

48:                                               ; preds = %43
  %49 = tail call noalias dereferenceable_or_null(64) ptr @malloc(i64 noundef 64) #25
  br label %Vec_IntGrow.exit.i

Vec_IntGrow.exit.i:                               ; preds = %48, %46
  %50 = phi ptr [ %47, %46 ], [ %49, %48 ]
  store ptr %50, ptr %44, align 8, !tbaa !29
  store i32 16, ptr %2, align 8, !tbaa !31
  br label %Vec_IntPush.exit

51:                                               ; preds = %41
  %52 = shl nuw nsw i32 %38, 1
  %53 = getelementptr inbounds nuw i8, ptr %2, i64 8
  %54 = load ptr, ptr %53, align 8, !tbaa !29
  %.not9.i9.i = icmp eq ptr %54, null
  %55 = zext nneg i32 %52 to i64
  %56 = shl nuw nsw i64 %55, 2
  br i1 %.not9.i9.i, label %59, label %57

57:                                               ; preds = %51
  %58 = tail call ptr @realloc(ptr noundef nonnull %54, i64 noundef %56) #24
  br label %61

59:                                               ; preds = %51
  %60 = tail call noalias ptr @malloc(i64 noundef %56) #25
  br label %61

61:                                               ; preds = %59, %57
  %62 = phi ptr [ %58, %57 ], [ %60, %59 ]
  store ptr %62, ptr %53, align 8, !tbaa !29
  store i32 %52, ptr %2, align 8, !tbaa !31
  br label %Vec_IntPush.exit

Vec_IntPush.exit:                                 ; preds = %.Vec_IntGrow.exit10_crit_edge.i, %Vec_IntGrow.exit.i, %61
  %63 = phi ptr [ %.pre.i, %.Vec_IntGrow.exit10_crit_edge.i ], [ %62, %61 ], [ %50, %Vec_IntGrow.exit.i ]
  %64 = load i32, ptr %37, align 4, !tbaa !33
  %65 = add nsw i32 %64, 1
  store i32 %65, ptr %37, align 4, !tbaa !33
  %66 = sext i32 %64 to i64
  %67 = getelementptr inbounds i32, ptr %63, i64 %66
  store i32 %36, ptr %67, align 4, !tbaa !30
  br label %.loopexit

tailrecurse:                                      ; preds = %Gia_ObjIsRo.exit.thread
  %68 = and i64 %24, 536870911
  %69 = sub nsw i64 0, %68
  %70 = getelementptr inbounds %struct.Gia_Obj_t_, ptr %.tr283439, i64 %69
  tail call void @Abs_ManSupport2_rec(ptr noundef nonnull %0, ptr noundef nonnull %70, ptr noundef %2)
  %71 = load i64, ptr %.tr283439, align 4
  %72 = lshr i64 %71, 32
  %73 = and i64 %72, 536870911
  %74 = sub nsw i64 0, %73
  %75 = getelementptr inbounds %struct.Gia_Obj_t_, ptr %.tr283439, i64 %74
  %76 = load ptr, ptr %4, align 8, !tbaa !61
  %.val.i = load ptr, ptr %5, align 8, !tbaa !3
  %77 = ptrtoint ptr %75 to i64
  %78 = ptrtoint ptr %.val.i to i64
  %79 = sub i64 %77, %78
  %80 = sdiv exact i64 %79, 12
  %sext.i = shl i64 %80, 32
  %81 = ashr exact i64 %sext.i, 30
  %82 = getelementptr inbounds i8, ptr %76, i64 %81
  %83 = load i32, ptr %82, align 4, !tbaa !30
  %84 = load i32, ptr %6, align 8, !tbaa !60
  %.not = icmp eq i32 %83, %84
  br i1 %.not, label %.loopexit, label %21

.loopexit:                                        ; preds = %tailrecurse, %3, %Vec_IntPush.exit
  ret void
}